target datalayout = "e-m:e-p270:32:32-p271:32:32-p272:64:64-i64:64-i128:128-f80:128-n8:16:32:64-S128"
target triple = "x86_64-unknown-linux-gnu"

%struct.SCSISense = type { i8, i8, i8 }
%struct.SCSIDiskState = type { %struct.SCSIDevice, i32, i8, i8, i8, i16, i64, i64, i32, ptr, ptr, ptr, ptr, ptr, ptr, i8, i8, i16 }
%struct.SCSIDevice = type { %struct.DeviceState, ptr, ptr, i32, %struct.BlockConf, %struct.SCSISense, i8, [252 x i8], i32, %union.anon, i32, i32, i32, i32, i64, i64, i64, i32, i32, i32, i8, i8 }
%struct.DeviceState = type { %struct.Object, ptr, ptr, i8, i8, i64, ptr, i32, i8, ptr, %struct.NamedGPIOListHead, %struct.NamedClockListHead, %struct.BusStateHead, i32, i32, i32, %struct.ResettableState, ptr, %struct.MemReentrancyGuard }
%struct.Object = type { ptr, ptr, ptr, i32, ptr }
%struct.NamedGPIOListHead = type { ptr }
%struct.NamedClockListHead = type { ptr }
%struct.BusStateHead = type { ptr }
%struct.ResettableState = type { i32, i8, i8 }
%struct.MemReentrancyGuard = type { i8 }
%struct.BlockConf = type { ptr, i32, i32, i32, i32, i32, i32, i32, i32, i32, i32, i32, i32, i32, i32, i8, i32, i32, i32, i32 }
%union.anon = type { %struct.QTailQLink }
%struct.QTailQLink = type { ptr, ptr }
%struct.SCSIDiskReq = type { %struct.SCSIRequest, i64, i32, i32, i8, i8, %struct.iovec, %struct.QEMUIOVector, %struct.BlockAcctCookie }
%struct.SCSIRequest = type { ptr, ptr, ptr, i32, i32, i32, i16, i16, ptr, i64, %struct.SCSICommand, %struct.NotifierList, [252 x i8], i32, i8, i8, i8, i8, ptr, ptr, %union.anon.0 }
%struct.SCSICommand = type { [16 x i8], i32, i64, i64, i32 }
%struct.NotifierList = type { %struct.anon }
%struct.anon = type { ptr }
%union.anon.0 = type { %struct.QTailQLink }
%struct.iovec = type { ptr, i64 }
%struct.QEMUIOVector = type { ptr, i32, %union.anon.1 }
%union.anon.1 = type { %struct.anon.2 }
%struct.anon.2 = type { i32, %struct.iovec }
%struct.BlockAcctCookie = type { i64, i64, i32 }
%struct.anon.3 = type { [12 x i8], i64 }
%struct.timeval = type { i64, i64 }

@.str.5 = private unnamed_addr constant [28 x i8] c"../qemu/hw/scsi/scsi-disk.c\00", align 1
@trace_events_enabled_count = external global i32, align 4
@message_with_timestamp = external global i8, align 1
@qemu_loglevel = external global i32, align 4
@.str.31 = private unnamed_addr constant [21 x i8] c"r->req.aiocb != NULL\00", align 1
@__PRETTY_FUNCTION__.scsi_read_complete = private unnamed_addr constant [37 x i8] c"void scsi_read_complete(void *, int)\00", align 1
@_TRACE_SCSI_DISK_READ_COMPLETE_DSTATE = external global i16, align 2
@.str.33 = private unnamed_addr constant [66 x i8] c"%d@%zu.%06zu:scsi_disk_read_complete Data ready tag=0x%x len=%zd\0A\00", align 1
@.str.34 = private unnamed_addr constant [53 x i8] c"scsi_disk_read_complete Data ready tag=0x%x len=%zd\0A\00", align 1

; Function Attrs: nounwind sspstrong uwtable
define internal zeroext i1 @qemu_loglevel_mask(i32 noundef %mask) #0 {
entry:
  %mask.addr = alloca i32, align 4
  store i32 %mask, ptr %mask.addr, align 4
  %0 = load i32, ptr @qemu_loglevel, align 4
  %1 = load i32, ptr %mask.addr, align 4
  %and = and i32 %0, %1
  %cmp = icmp ne i32 %and, 0
  ret i1 %cmp
}

; Function Attrs: nounwind sspstrong uwtable
define internal void @_nocheck__trace_scsi_disk_read_complete(i32 noundef %tag, i64 noundef %size) #0 {
entry:
  %tag.addr = alloca i32, align 4
  %size.addr = alloca i64, align 8
  %_now = alloca %struct.timeval, align 8
  store i32 %tag, ptr %tag.addr, align 4
  store i64 %size, ptr %size.addr, align 8
  %0 = load i32, ptr @trace_events_enabled_count, align 4
  %tobool = icmp ne i32 %0, 0
  %lnot = xor i1 %tobool, true
  %lnot1 = xor i1 %lnot, true
  %lnot.ext = zext i1 %lnot1 to i32
  %conv = sext i32 %lnot.ext to i64
  %tobool2 = icmp ne i64 %conv, 0
  br i1 %tobool2, label %land.lhs.true, label %if.end11

land.lhs.true:                                    ; preds = %entry
  %1 = load i16, ptr @_TRACE_SCSI_DISK_READ_COMPLETE_DSTATE, align 2
  %conv3 = zext i16 %1 to i32
  %tobool4 = icmp ne i32 %conv3, 0
  br i1 %tobool4, label %land.lhs.true5, label %if.end11

land.lhs.true5:                                   ; preds = %land.lhs.true
  %call = call zeroext i1 @qemu_loglevel_mask(i32 noundef 32768)
  br i1 %call, label %if.then, label %if.end11

if.then:                                          ; preds = %land.lhs.true5
  %2 = load i8, ptr @message_with_timestamp, align 1
  %tobool7 = trunc i8 %2 to i1
  br i1 %tobool7, label %if.then8, label %if.else

if.then8:                                         ; preds = %if.then
  %call9 = call i32 @gettimeofday(ptr noundef %_now, ptr noundef null) #13
  %call10 = call i32 @qemu_get_thread_id()
  %tv_sec = getelementptr inbounds %struct.timeval, ptr %_now, i32 0, i32 0
  %3 = load i64, ptr %tv_sec, align 8
  %tv_usec = getelementptr inbounds %struct.timeval, ptr %_now, i32 0, i32 1
  %4 = load i64, ptr %tv_usec, align 8
  %5 = load i32, ptr %tag.addr, align 4
  %6 = load i64, ptr %size.addr, align 8
  call void (ptr, ...) @qemu_log(ptr noundef @.str.33, i32 noundef %call10, i64 noundef %3, i64 noundef %4, i32 noundef %5, i64 noundef %6)
  br label %if.end

if.else:                                          ; preds = %if.then
  %7 = load i32, ptr %tag.addr, align 4
  %8 = load i64, ptr %size.addr, align 8
  call void (ptr, ...) @qemu_log(ptr noundef @.str.34, i32 noundef %7, i64 noundef %8)
  br label %if.end

if.end:                                           ; preds = %if.else, %if.then8
  br label %if.end11

if.end11:                                         ; preds = %if.end, %land.lhs.true5, %land.lhs.true, %entry
  ret void
}

; Function Attrs: nounwind sspstrong uwtable
define internal void @trace_scsi_disk_read_complete(i32 noundef %tag, i64 noundef %size) #0 {
entry:
  %tag.addr = alloca i32, align 4
  %size.addr = alloca i64, align 8
  store i32 %tag, ptr %tag.addr, align 4
  store i64 %size, ptr %size.addr, align 8
  %0 = load i32, ptr %tag.addr, align 4
  %1 = load i64, ptr %size.addr, align 8
  call void @_nocheck__trace_scsi_disk_read_complete(i32 noundef %0, i64 noundef %1)
  ret void
}

; Function Attrs: nounwind sspstrong uwtable
define internal void @scsi_read_complete(ptr noundef %opaque, i32 noundef %ret) #0 {
entry:
  %opaque.addr = alloca ptr, align 8
  %ret.addr = alloca i32, align 4
  %r = alloca ptr, align 8
  %s = alloca ptr, align 8
  %tmp = alloca ptr, align 8
  %__mptr = alloca ptr, align 8
  %tmp1 = alloca ptr, align 8
  store ptr %opaque, ptr %opaque.addr, align 8
  store i32 %ret, ptr %ret.addr, align 4
  %0 = load ptr, ptr %opaque.addr, align 8
  store ptr %0, ptr %r, align 8
  %1 = load ptr, ptr %r, align 8
  %req = getelementptr inbounds %struct.SCSIDiskReq, ptr %1, i32 0, i32 0
  %dev = getelementptr inbounds %struct.SCSIRequest, ptr %req, i32 0, i32 1
  %2 = load ptr, ptr %dev, align 8
  store ptr %2, ptr %__mptr, align 8
  %3 = load ptr, ptr %__mptr, align 8
  %add.ptr = getelementptr i8, ptr %3, i64 0
  store ptr %add.ptr, ptr %tmp1, align 8
  %4 = load ptr, ptr %tmp1, align 8
  store ptr %4, ptr %tmp, align 8
  %5 = load ptr, ptr %tmp, align 8
  store ptr %5, ptr %s, align 8
  %6 = load ptr, ptr %s, align 8
  %qdev = getelementptr inbounds %struct.SCSIDiskState, ptr %6, i32 0, i32 0
  %conf = getelementptr inbounds %struct.SCSIDevice, ptr %qdev, i32 0, i32 4
  %blk = getelementptr inbounds %struct.BlockConf, ptr %conf, i32 0, i32 0
  %7 = load ptr, ptr %blk, align 8
  %call = call ptr @blk_get_aio_context(ptr noundef %7)
  call void @aio_context_acquire(ptr noundef %call)
  %8 = load ptr, ptr %r, align 8
  %req2 = getelementptr inbounds %struct.SCSIDiskReq, ptr %8, i32 0, i32 0
  %aiocb = getelementptr inbounds %struct.SCSIRequest, ptr %req2, i32 0, i32 18
  %9 = load ptr, ptr %aiocb, align 8
  %cmp = icmp ne ptr %9, null
  br i1 %cmp, label %if.then, label %if.else

if.then:                                          ; preds = %entry
  br label %if.end

if.else:                                          ; preds = %entry
  call void @__assert_fail(ptr noundef @.str.31, ptr noundef @.str.5, i32 noundef 399, ptr noundef @__PRETTY_FUNCTION__.scsi_read_complete) #11
  unreachable

if.end:                                           ; preds = %if.then
  %10 = load ptr, ptr %r, align 8
  %req3 = getelementptr inbounds %struct.SCSIDiskReq, ptr %10, i32 0, i32 0
  %aiocb4 = getelementptr inbounds %struct.SCSIRequest, ptr %req3, i32 0, i32 18
  store ptr null, ptr %aiocb4, align 8
  %11 = load i32, ptr %ret.addr, align 4
  %cmp5 = icmp slt i32 %11, 0
  br i1 %cmp5, label %if.then6, label %if.else11

if.then6:                                         ; preds = %if.end
  %12 = load ptr, ptr %s, align 8
  %qdev7 = getelementptr inbounds %struct.SCSIDiskState, ptr %12, i32 0, i32 0
  %conf8 = getelementptr inbounds %struct.SCSIDevice, ptr %qdev7, i32 0, i32 4
  %blk9 = getelementptr inbounds %struct.BlockConf, ptr %conf8, i32 0, i32 0
  %13 = load ptr, ptr %blk9, align 8
  %call10 = call ptr @blk_get_stats(ptr noundef %13)
  %14 = load ptr, ptr %r, align 8
  %acct = getelementptr inbounds %struct.SCSIDiskReq, ptr %14, i32 0, i32 8
  call void @block_acct_failed(ptr noundef %call10, ptr noundef %acct)
  br label %if.end18

if.else11:                                        ; preds = %if.end
  %15 = load ptr, ptr %s, align 8
  %qdev12 = getelementptr inbounds %struct.SCSIDiskState, ptr %15, i32 0, i32 0
  %conf13 = getelementptr inbounds %struct.SCSIDevice, ptr %qdev12, i32 0, i32 4
  %blk14 = getelementptr inbounds %struct.BlockConf, ptr %conf13, i32 0, i32 0
  %16 = load ptr, ptr %blk14, align 8
  %call15 = call ptr @blk_get_stats(ptr noundef %16)
  %17 = load ptr, ptr %r, align 8
  %acct16 = getelementptr inbounds %struct.SCSIDiskReq, ptr %17, i32 0, i32 8
  call void @block_acct_done(ptr noundef %call15, ptr noundef %acct16)
  %18 = load ptr, ptr %r, align 8
  %req17 = getelementptr inbounds %struct.SCSIDiskReq, ptr %18, i32 0, i32 0
  %tag = getelementptr inbounds %struct.SCSIRequest, ptr %req17, i32 0, i32 4
  %19 = load i32, ptr %tag, align 4
  %20 = load ptr, ptr %r, align 8
  %qiov = getelementptr inbounds %struct.SCSIDiskReq, ptr %20, i32 0, i32 7
  %21 = getelementptr inbounds %struct.QEMUIOVector, ptr %qiov, i32 0, i32 2
  %size = getelementptr inbounds %struct.anon.3, ptr %21, i32 0, i32 1
  %22 = load i64, ptr %size, align 8
  call void @trace_scsi_disk_read_complete(i32 noundef %19, i64 noundef %22)
  br label %if.end18

if.end18:                                         ; preds = %if.else11, %if.then6
  %23 = load ptr, ptr %r, align 8
  %24 = load i32, ptr %ret.addr, align 4
  call void @scsi_read_complete_noio(ptr noundef %23, i32 noundef %24)
  %25 = load ptr, ptr %s, align 8
  %qdev19 = getelementptr inbounds %struct.SCSIDiskState, ptr %25, i32 0, i32 0
  %conf20 = getelementptr inbounds %struct.SCSIDevice, ptr %qdev19, i32 0, i32 4
  %blk21 = getelementptr inbounds %struct.BlockConf, ptr %conf20, i32 0, i32 0
  %26 = load ptr, ptr %blk21, align 8
  %call22 = call ptr @blk_get_aio_context(ptr noundef %26)
  call void @aio_context_release(ptr noundef %call22)
  ret void
}