; Function Attrs: nounwind sspstrong uwtable
define internal void @scsi_read_complete(ptr noundef %opaque, i32 noundef %ret) #0 {
entry:
  %_now.i.i = alloca %struct.timeval, align 8
  %dev = getelementptr inbounds nuw i8, ptr %opaque, i64 8
  %0 = load ptr, ptr %dev, align 8
  %conf = getelementptr inbounds nuw i8, ptr %0, i64 184
  %1 = load ptr, ptr %conf, align 8
  %call = tail call ptr @blk_get_aio_context(ptr noundef %1) #18
  tail call void @aio_context_acquire(ptr noundef %call) #18
  %aiocb = getelementptr inbounds nuw i8, ptr %opaque, i64 376
  %2 = load ptr, ptr %aiocb, align 8
  %cmp.not = icmp eq ptr %2, null
  br i1 %cmp.not, label %if.else, label %if.end

if.else:                                          ; preds = %entry
  tail call void @__assert_fail(ptr noundef nonnull @.str.31, ptr noundef nonnull @.str.5, i32 noundef 399, ptr noundef nonnull @__PRETTY_FUNCTION__.scsi_read_complete) #19
  unreachable

if.end:                                           ; preds = %entry
  store ptr null, ptr %aiocb, align 8
  %cmp5 = icmp slt i32 %ret, 0
  %3 = load ptr, ptr %conf, align 8
  %call10 = tail call ptr @blk_get_stats(ptr noundef %3) #18
  %acct = getelementptr inbounds nuw i8, ptr %opaque, i64 488
  br i1 %cmp5, label %if.then6, label %if.else11

if.then6:                                         ; preds = %if.end
  tail call void @block_acct_failed(ptr noundef %call10, ptr noundef nonnull %acct) #18
  br label %if.end18

if.else11:                                        ; preds = %if.end
  tail call void @block_acct_done(ptr noundef %call10, ptr noundef nonnull %acct) #18
  %tag = getelementptr inbounds nuw i8, ptr %opaque, i64 28
  %4 = load i32, ptr %tag, align 4
  %size = getelementptr inbounds nuw i8, ptr %opaque, i64 480
  %5 = load i64, ptr %size, align 8
  call void @llvm.lifetime.start.p0(i64 16, ptr nonnull %_now.i.i)
  %6 = load i32, ptr @trace_events_enabled_count, align 4
  %tobool.i.i = icmp ne i32 %6, 0
  %7 = load i16, ptr @_TRACE_SCSI_DISK_READ_COMPLETE_DSTATE, align 2
  %tobool4.i.i = icmp ne i16 %7, 0
  %or.cond.i.i = select i1 %tobool.i.i, i1 %tobool4.i.i, i1 false
  br i1 %or.cond.i.i, label %land.lhs.true5.i.i, label %trace_scsi_disk_read_complete.exit

land.lhs.true5.i.i:                               ; preds = %if.else11
  %8 = load i32, ptr @qemu_loglevel, align 4
  %and.i.i.i = and i32 %8, 32768
  %cmp.i.not.i.i = icmp eq i32 %and.i.i.i, 0
  br i1 %cmp.i.not.i.i, label %trace_scsi_disk_read_complete.exit, label %if.then.i.i

if.then.i.i:                                      ; preds = %land.lhs.true5.i.i
  %9 = load i8, ptr @message_with_timestamp, align 1
  %tobool7.i.i = trunc i8 %9 to i1
  br i1 %tobool7.i.i, label %if.then8.i.i, label %if.else.i.i

if.then8.i.i:                                     ; preds = %if.then.i.i
  %call9.i.i = call i32 @gettimeofday(ptr noundef nonnull %_now.i.i, ptr noundef null) #18
  %call10.i.i = tail call i32 @qemu_get_thread_id() #18
  %10 = load i64, ptr %_now.i.i, align 8
  %tv_usec.i.i = getelementptr inbounds nuw i8, ptr %_now.i.i, i64 8
  %11 = load i64, ptr %tv_usec.i.i, align 8
  tail call void (ptr, ...) @qemu_log(ptr noundef nonnull @.str.33, i32 noundef %call10.i.i, i64 noundef %10, i64 noundef %11, i32 noundef %4, i64 noundef %5) #18
  br label %trace_scsi_disk_read_complete.exit

if.else.i.i:                                      ; preds = %if.then.i.i
  tail call void (ptr, ...) @qemu_log(ptr noundef nonnull @.str.34, i32 noundef %4, i64 noundef %5) #18
  br label %trace_scsi_disk_read_complete.exit

trace_scsi_disk_read_complete.exit:               ; preds = %if.else11, %land.lhs.true5.i.i, %if.then8.i.i, %if.else.i.i
  call void @llvm.lifetime.end.p0(i64 16, ptr nonnull %_now.i.i)
  br label %if.end18

if.end18:                                         ; preds = %trace_scsi_disk_read_complete.exit, %if.then6
  tail call fastcc void @scsi_read_complete_noio(ptr noundef nonnull %opaque, i32 noundef %ret)
  %12 = load ptr, ptr %conf, align 8
  %call22 = tail call ptr @blk_get_aio_context(ptr noundef %12) #18
  tail call void @aio_context_release(ptr noundef %call22) #18
  ret void
}